; Function Attrs: nounwind uwtable
define noundef i32 @Cnf_CountCnfSize(ptr noundef %0) local_unnamed_addr #0 {
  %2 = tail call noalias dereferenceable_or_null(16) ptr @malloc(i64 noundef 16) #13
  %3 = getelementptr inbounds nuw i8, ptr %2, i64 4
  store i32 0, ptr %3, align 4
  store i32 100, ptr %2, align 8
  %4 = tail call noalias dereferenceable_or_null(800) ptr @malloc(i64 noundef 800) #13
  %5 = getelementptr inbounds nuw i8, ptr %2, i64 8
  store ptr %4, ptr %5, align 8
  %6 = tail call noalias dereferenceable_or_null(16) ptr @malloc(i64 noundef 16) #13
  %7 = getelementptr inbounds nuw i8, ptr %6, i64 4
  store i32 0, ptr %7, align 4
  store i32 100, ptr %6, align 8
  %8 = tail call noalias dereferenceable_or_null(800) ptr @malloc(i64 noundef 800) #13
  %9 = getelementptr inbounds nuw i8, ptr %6, i64 8
  store ptr %8, ptr %9, align 8
  %10 = tail call noalias dereferenceable_or_null(16) ptr @malloc(i64 noundef 16) #13
  %11 = getelementptr inbounds nuw i8, ptr %10, i64 4
  store i32 0, ptr %11, align 4
  store i32 65536, ptr %10, align 8
  %12 = tail call noalias dereferenceable_or_null(262144) ptr @malloc(i64 noundef 262144) #13
  %13 = getelementptr inbounds nuw i8, ptr %10, i64 8
  store ptr %12, ptr %13, align 8
  %14 = getelementptr inbounds nuw i8, ptr %0, i64 32
  %15 = load ptr, ptr %14, align 8
  %16 = getelementptr i8, ptr %15, i64 4
  %.val42 = load i32, ptr %16, align 4
  %17 = icmp sgt i32 %.val42, 0
  br i1 %17, label %.lr.ph, label %.critedge2

.lr.ph:                                           ; preds = %1
  %18 = getelementptr i8, ptr %15, i64 8
  %.val44 = load ptr, ptr %18, align 8
  %wide.trip.count = zext nneg i32 %.val42 to i64
  br label %20

.lr.ph54:                                         ; preds = %31
  %19 = getelementptr i8, ptr %0, i64 312
  br label %32

20:                                               ; preds = %.lr.ph, %31
  %indvars.iv = phi i64 [ 0, %.lr.ph ], [ %indvars.iv.next, %31 ]
  %.03749 = phi i32 [ 0, %.lr.ph ], [ %.138, %31 ]
  %21 = getelementptr inbounds nuw ptr, ptr %.val44, i64 %indvars.iv
  %22 = load ptr, ptr %21, align 8
  %23 = icmp eq ptr %22, null
  br i1 %23, label %31, label %24

24:                                               ; preds = %20
  %25 = getelementptr inbounds nuw i8, ptr %22, i64 24
  %26 = load i64, ptr %25, align 8
  %27 = trunc i64 %26 to i32
  %28 = lshr i32 %27, 4
  %29 = and i32 %28, 1
  %30 = add nsw i32 %29, %.03749
  br label %31

31:                                               ; preds = %24, %20
  %.138 = phi i32 [ %.03749, %20 ], [ %30, %24 ]
  %indvars.iv.next = add nuw nsw i64 %indvars.iv, 1
  %exitcond.not = icmp eq i64 %indvars.iv.next, %wide.trip.count
  br i1 %exitcond.not, label %.lr.ph54, label %20, !llvm.loop !26

32:                                               ; preds = %.lr.ph54, %.critedge
  %33 = phi ptr [ %15, %.lr.ph54 ], [ %54, %.critedge ]
  %indvars.iv57 = phi i64 [ 0, %.lr.ph54 ], [ %indvars.iv.next58, %.critedge ]
  %.03552 = phi i32 [ 0, %.lr.ph54 ], [ %.136, %.critedge ]
  %34 = getelementptr i8, ptr %33, i64 8
  %.val43 = load ptr, ptr %34, align 8
  %35 = getelementptr inbounds nuw ptr, ptr %.val43, i64 %indvars.iv57
  %36 = load ptr, ptr %35, align 8
  %37 = icmp eq ptr %36, null
  br i1 %37, label %.critedge, label %38

38:                                               ; preds = %32
  %39 = getelementptr i8, ptr %36, i64 24
  %.val45 = load i64, ptr %39, align 8
  %40 = trunc i64 %.val45 to i32
  %41 = and i32 %40, 7
  %42 = add nsw i32 %41, -7
  %narrow.i = icmp ult i32 %42, -2
  %43 = and i64 %.val45, 16
  %.not41 = icmp eq i64 %43, 0
  %or.cond = or i1 %.not41, %narrow.i
  br i1 %or.cond, label %.critedge, label %44

44:                                               ; preds = %38
  store i32 0, ptr %3, align 4
  tail call void @Cnf_CollectLeaves_rec(ptr noundef nonnull %36, ptr noundef nonnull %36, ptr noundef nonnull %2, i32 noundef 0)
  tail call void @Aig_ManIncrementTravId(ptr noundef nonnull %0) #14
  %.val1113.i = load i32, ptr %3, align 4
  %45 = icmp sgt i32 %.val1113.i, 0
  br i1 %45, label %.lr.ph.i, label %Cnf_CollectVolume.exit

.lr.ph.i:                                         ; preds = %44
  %.val.pre.i = load i32, ptr %19, align 8
  br label %46

46:                                               ; preds = %46, %.lr.ph.i
  %indvars.iv.i = phi i64 [ 0, %.lr.ph.i ], [ %indvars.iv.next.i, %46 ]
  %.val12.i = load ptr, ptr %5, align 8
  %47 = getelementptr inbounds nuw ptr, ptr %.val12.i, i64 %indvars.iv.i
  %48 = load ptr, ptr %47, align 8
  %49 = getelementptr inbounds nuw i8, ptr %48, i64 32
  store i32 %.val.pre.i, ptr %49, align 8
  %indvars.iv.next.i = add nuw nsw i64 %indvars.iv.i, 1
  %.val11.i = load i32, ptr %3, align 4
  %50 = sext i32 %.val11.i to i64
  %51 = icmp slt i64 %indvars.iv.next.i, %50
  br i1 %51, label %46, label %Cnf_CollectVolume.exit, !llvm.loop !6

Cnf_CollectVolume.exit:                           ; preds = %46, %44
  store i32 0, ptr %7, align 4
  tail call void @Cnf_CollectVolume_rec(ptr noundef nonnull %0, ptr noundef nonnull %36, ptr noundef nonnull %6)
  %52 = tail call i32 @Cnf_CutCountClauses(ptr nonnull poison, ptr noundef nonnull %2, ptr noundef nonnull %6, ptr noundef nonnull %10)
  %53 = add nsw i32 %52, %.03552
  %.pre = load ptr, ptr %14, align 8
  br label %.critedge

.critedge:                                        ; preds = %Cnf_CollectVolume.exit, %38, %32
  %54 = phi ptr [ %33, %32 ], [ %.pre, %Cnf_CollectVolume.exit ], [ %33, %38 ]
  %.136 = phi i32 [ %.03552, %32 ], [ %53, %Cnf_CollectVolume.exit ], [ %.03552, %38 ]
  %indvars.iv.next58 = add nuw nsw i64 %indvars.iv57, 1
  %55 = getelementptr i8, ptr %54, i64 4
  %.val = load i32, ptr %55, align 4
  %56 = sext i32 %.val to i64
  %57 = icmp slt i64 %indvars.iv.next58, %56
  br i1 %57, label %32, label %.critedge2, !llvm.loop !27

.critedge2:                                       ; preds = %.critedge, %1
  %.037.lcssa61 = phi i32 [ 0, %1 ], [ %.138, %.critedge ]
  %.035.lcssa = phi i32 [ 0, %1 ], [ %.136, %.critedge ]
  %58 = tail call i32 (ptr, ...) @printf(ptr noundef nonnull dereferenceable(1) @.str.5, i32 noundef %.037.lcssa61, i32 noundef %.035.lcssa)
  %59 = load ptr, ptr %5, align 8
  %.not.i = icmp eq ptr %59, null
  br i1 %.not.i, label %Vec_PtrFree.exit, label %60

60:                                               ; preds = %.critedge2
  tail call void @free(ptr noundef nonnull %59) #14
  br label %Vec_PtrFree.exit

Vec_PtrFree.exit:                                 ; preds = %.critedge2, %60
  tail call void @free(ptr noundef nonnull %2) #14
  %61 = load ptr, ptr %9, align 8
  %.not.i46 = icmp eq ptr %61, null
  br i1 %.not.i46, label %Vec_PtrFree.exit47, label %62

62:                                               ; preds = %Vec_PtrFree.exit
  tail call void @free(ptr noundef nonnull %61) #14
  br label %Vec_PtrFree.exit47

Vec_PtrFree.exit47:                               ; preds = %Vec_PtrFree.exit, %62
  tail call void @free(ptr noundef nonnull %6) #14
  %63 = load ptr, ptr %13, align 8
  %.not.i48 = icmp eq ptr %63, null
  br i1 %.not.i48, label %Vec_IntFree.exit, label %64

64:                                               ; preds = %Vec_PtrFree.exit47
  tail call void @free(ptr noundef nonnull %63) #14
  br label %Vec_IntFree.exit

Vec_IntFree.exit:                                 ; preds = %Vec_PtrFree.exit47, %64
  tail call void @free(ptr noundef nonnull %10) #14
  ret i32 %.035.lcssa
}